target datalayout = "e-m:e-p270:32:32-p271:32:32-p272:64:64-i64:64-i128:128-f80:128-n8:16:32:64-S128"
target triple = "x86_64-unknown-linux-gnu"

%"class.std::vector.0" = type { %"struct.std::_Vector_base.1" }
%"struct.std::_Vector_base.1" = type { %"struct.std::_Vector_base<unsigned long, std::allocator<unsigned long>>::_Vector_impl" }
%"struct.std::_Vector_base<unsigned long, std::allocator<unsigned long>>::_Vector_impl" = type { %"struct.std::_Vector_base<unsigned long, std::allocator<unsigned long>>::_Vector_impl_data" }
%"struct.std::_Vector_base<unsigned long, std::allocator<unsigned long>>::_Vector_impl_data" = type { ptr, ptr, ptr }
%"class.std::vector" = type { %"struct.std::_Vector_base" }
%"struct.std::_Vector_base" = type { %"struct.std::_Vector_base<double, std::allocator<double>>::_Vector_impl" }
%"struct.std::_Vector_base<double, std::allocator<double>>::_Vector_impl" = type { %"struct.std::_Vector_base<double, std::allocator<double>>::_Vector_impl_data" }
%"struct.std::_Vector_base<double, std::allocator<double>>::_Vector_impl_data" = type { ptr, ptr, ptr }
%"class.QuantLib::SobolBrownianGeneratorBase" = type { %"class.QuantLib::BrownianGenerator", i64, i64, i32, %"class.QuantLib::BrownianBridge", i64, %"class.std::vector.5", %"class.std::vector.10" }
%"class.QuantLib::BrownianGenerator" = type { ptr }
%"class.QuantLib::BrownianBridge" = type { i64, %"class.std::vector", %"class.std::vector", %"class.std::vector.0", %"class.std::vector.0", %"class.std::vector.0", %"class.std::vector", %"class.std::vector", %"class.std::vector" }
%"class.std::vector.5" = type { %"struct.std::_Vector_base.6" }
%"struct.std::_Vector_base.6" = type { %"struct.std::_Vector_base<std::vector<unsigned long>, std::allocator<std::vector<unsigned long>>>::_Vector_impl" }
%"struct.std::_Vector_base<std::vector<unsigned long>, std::allocator<std::vector<unsigned long>>>::_Vector_impl" = type { %"struct.std::_Vector_base<std::vector<unsigned long>, std::allocator<std::vector<unsigned long>>>::_Vector_impl_data" }
%"struct.std::_Vector_base<std::vector<unsigned long>, std::allocator<std::vector<unsigned long>>>::_Vector_impl_data" = type { ptr, ptr, ptr }
%"class.std::vector.10" = type { %"struct.std::_Vector_base.11" }
%"struct.std::_Vector_base.11" = type { %"struct.std::_Vector_base<std::vector<double>, std::allocator<std::vector<double>>>::_Vector_impl" }
%"struct.std::_Vector_base<std::vector<double>, std::allocator<std::vector<double>>>::_Vector_impl" = type { %"struct.std::_Vector_base<std::vector<double>, std::allocator<std::vector<double>>>::_Vector_impl_data" }
%"struct.std::_Vector_base<std::vector<double>, std::allocator<std::vector<double>>>::_Vector_impl_data" = type { ptr, ptr, ptr }

; Function Attrs: mustprogress nounwind uwtable
define linkonce_odr noundef nonnull align 8 dereferenceable(8) ptr @_ZNSt6vectorIdSaIdEEixEm(ptr noundef nonnull align 8 dereferenceable(24) %this, i64 noundef %__n) #4 comdat align 2 {
entry:
  %this.addr = alloca ptr, align 8
  %__n.addr = alloca i64, align 8
  store ptr %this, ptr %this.addr, align 8, !tbaa !3
  store i64 %__n, ptr %__n.addr, align 8, !tbaa !7
  %this1 = load ptr, ptr %this.addr, align 8
  %_M_impl = getelementptr inbounds nuw %"struct.std::_Vector_base", ptr %this1, i32 0, i32 0
  %_M_start = getelementptr inbounds nuw %"struct.std::_Vector_base<double, std::allocator<double>>::_Vector_impl_data", ptr %_M_impl, i32 0, i32 0
  %0 = load ptr, ptr %_M_start, align 8, !tbaa !38
  %1 = load i64, ptr %__n.addr, align 8, !tbaa !7
  %add.ptr = getelementptr inbounds nuw double, ptr %0, i64 %1
  ret ptr %add.ptr
}

; Function Attrs: mustprogress nounwind uwtable
define linkonce_odr noundef nonnull align 8 dereferenceable(24) ptr @_ZNSt6vectorIS_IdSaIdEESaIS1_EEixEm(ptr noundef nonnull align 8 dereferenceable(24) %this, i64 noundef %__n) #4 comdat align 2 {
entry:
  %this.addr = alloca ptr, align 8
  %__n.addr = alloca i64, align 8
  store ptr %this, ptr %this.addr, align 8, !tbaa !3
  store i64 %__n, ptr %__n.addr, align 8, !tbaa !7
  %this1 = load ptr, ptr %this.addr, align 8
  %_M_impl = getelementptr inbounds nuw %"struct.std::_Vector_base.11", ptr %this1, i32 0, i32 0
  %_M_start = getelementptr inbounds nuw %"struct.std::_Vector_base<std::vector<double>, std::allocator<std::vector<double>>>::_Vector_impl_data", ptr %_M_impl, i32 0, i32 0
  %0 = load ptr, ptr %_M_start, align 8, !tbaa !46
  %1 = load i64, ptr %__n.addr, align 8, !tbaa !7
  %add.ptr = getelementptr inbounds nuw %"class.std::vector", ptr %0, i64 %1
  ret ptr %add.ptr
}

; Function Attrs: mustprogress nounwind uwtable
define noundef double @_ZN8QuantLib26SobolBrownianGeneratorBase8nextStepERSt6vectorIdSaIdEE(ptr noundef nonnull align 8 dereferenceable(288) %this, ptr noundef nonnull align 8 dereferenceable(24) %output) unnamed_addr #4 align 2 {
entry:
  %this.addr = alloca ptr, align 8
  %output.addr = alloca ptr, align 8
  %i = alloca i64, align 8
  store ptr %this, ptr %this.addr, align 8, !tbaa !3
  store ptr %output, ptr %output.addr, align 8, !tbaa !3
  %this1 = load ptr, ptr %this.addr, align 8
  call void @llvm.lifetime.start.p0(i64 8, ptr %i) #16
  store i64 0, ptr %i, align 8, !tbaa !7
  br label %for.cond

for.cond:                                         ; preds = %for.inc, %entry
  %0 = load i64, ptr %i, align 8, !tbaa !7
  %factors_ = getelementptr inbounds nuw %"class.QuantLib::SobolBrownianGeneratorBase", ptr %this1, i32 0, i32 1
  %1 = load i64, ptr %factors_, align 8, !tbaa !13
  %cmp = icmp ult i64 %0, %1
  br i1 %cmp, label %for.body, label %for.cond.cleanup

for.cond.cleanup:                                 ; preds = %for.cond
  call void @llvm.lifetime.end.p0(i64 8, ptr %i) #16
  br label %for.end

for.body:                                         ; preds = %for.cond
  %bridgedVariates_ = getelementptr inbounds nuw %"class.QuantLib::SobolBrownianGeneratorBase", ptr %this1, i32 0, i32 7
  %2 = load i64, ptr %i, align 8, !tbaa !7
  %call = call noundef nonnull align 8 dereferenceable(24) ptr @_ZNSt6vectorIS_IdSaIdEESaIS1_EEixEm(ptr noundef nonnull align 8 dereferenceable(24) %bridgedVariates_, i64 noundef %2) #16
  %lastStep_ = getelementptr inbounds nuw %"class.QuantLib::SobolBrownianGeneratorBase", ptr %this1, i32 0, i32 5
  %3 = load i64, ptr %lastStep_, align 8, !tbaa !35
  %call2 = call noundef nonnull align 8 dereferenceable(8) ptr @_ZNSt6vectorIdSaIdEEixEm(ptr noundef nonnull align 8 dereferenceable(24) %call, i64 noundef %3) #16
  %4 = load double, ptr %call2, align 8, !tbaa !55
  %5 = load ptr, ptr %output.addr, align 8, !tbaa !3
  %6 = load i64, ptr %i, align 8, !tbaa !7
  %call3 = call noundef nonnull align 8 dereferenceable(8) ptr @_ZNSt6vectorIdSaIdEEixEm(ptr noundef nonnull align 8 dereferenceable(24) %5, i64 noundef %6) #16
  store double %4, ptr %call3, align 8, !tbaa !55
  br label %for.inc

for.inc:                                          ; preds = %for.body
  %7 = load i64, ptr %i, align 8, !tbaa !7
  %inc = add i64 %7, 1
  store i64 %inc, ptr %i, align 8, !tbaa !7
  br label %for.cond, !llvm.loop !66

for.end:                                          ; preds = %for.cond.cleanup
  %lastStep_4 = getelementptr inbounds nuw %"class.QuantLib::SobolBrownianGeneratorBase", ptr %this1, i32 0, i32 5
  %8 = load i64, ptr %lastStep_4, align 8, !tbaa !35
  %inc5 = add i64 %8, 1
  store i64 %inc5, ptr %lastStep_4, align 8, !tbaa !35
  ret double 1.000000e+00
}