; Function Attrs: mustprogress nofree norecurse nosync nounwind memory(readwrite, inaccessiblemem: none) uwtable
define noundef double @_ZN8QuantLib26SobolBrownianGeneratorBase8nextStepERSt6vectorIdSaIdEE(ptr nocapture noundef nonnull align 8 dereferenceable(288) %this, ptr nocapture noundef nonnull readonly align 8 dereferenceable(24) %output) unnamed_addr #7 align 2 {
entry:
  %factors_ = getelementptr inbounds nuw i8, ptr %this, i64 8
  %0 = load i64, ptr %factors_, align 8, !tbaa !6
  %cmp6.not = icmp eq i64 %0, 0
  br i1 %cmp6.not, label %entry.for.cond.cleanup_crit_edge, label %for.body.lr.ph

entry.for.cond.cleanup_crit_edge:                 ; preds = %entry
  %lastStep_4.phi.trans.insert = getelementptr inbounds nuw i8, ptr %this, i64 232
  %.pre = load i64, ptr %lastStep_4.phi.trans.insert, align 8, !tbaa !32
  br label %for.cond.cleanup

for.body.lr.ph:                                   ; preds = %entry
  %bridgedVariates_ = getelementptr inbounds nuw i8, ptr %this, i64 264
  %1 = load ptr, ptr %bridgedVariates_, align 8, !tbaa !45
  %lastStep_ = getelementptr inbounds nuw i8, ptr %this, i64 232
  %2 = load i64, ptr %lastStep_, align 8, !tbaa !32
  %3 = load ptr, ptr %output, align 8, !tbaa !40
  br label %for.body

for.cond.cleanup:                                 ; preds = %for.body, %entry.for.cond.cleanup_crit_edge
  %4 = phi i64 [ %.pre, %entry.for.cond.cleanup_crit_edge ], [ %2, %for.body ]
  %lastStep_4 = getelementptr inbounds nuw i8, ptr %this, i64 232
  %inc5 = add i64 %4, 1
  store i64 %inc5, ptr %lastStep_4, align 8, !tbaa !32
  ret double 1.000000e+00

for.body:                                         ; preds = %for.body.lr.ph, %for.body
  %i.07 = phi i64 [ 0, %for.body.lr.ph ], [ %inc, %for.body ]
  %add.ptr.i = getelementptr inbounds nuw %"class.std::vector", ptr %1, i64 %i.07
  %5 = load ptr, ptr %add.ptr.i, align 8, !tbaa !40
  %add.ptr.i4 = getelementptr inbounds nuw double, ptr %5, i64 %2
  %6 = load double, ptr %add.ptr.i4, align 8, !tbaa !42
  %add.ptr.i5 = getelementptr inbounds nuw double, ptr %3, i64 %i.07
  store double %6, ptr %add.ptr.i5, align 8, !tbaa !42
  %inc = add nuw i64 %i.07, 1
  %exitcond.not = icmp eq i64 %inc, %0
  br i1 %exitcond.not, label %for.cond.cleanup, label %for.body, !llvm.loop !76
}